target datalayout = "e-m:e-p270:32:32-p271:32:32-p272:64:64-i64:64-i128:128-f80:128-n8:16:32:64-S128"
target triple = "x86_64-pc-linux-gnu"

%"struct.std::_Vector_base" = type { %"struct.std::_Vector_base<double, std::allocator<double>>::_Vector_impl" }
%"struct.std::_Vector_base<double, std::allocator<double>>::_Vector_impl" = type { %"struct.std::_Vector_base<double, std::allocator<double>>::_Vector_impl_data" }
%"struct.std::_Vector_base<double, std::allocator<double>>::_Vector_impl_data" = type { ptr, ptr, ptr }
%"struct.std::_Vector_base.1" = type { %"struct.std::_Vector_base<int, std::allocator<int>>::_Vector_impl" }
%"struct.std::_Vector_base<int, std::allocator<int>>::_Vector_impl" = type { %"struct.std::_Vector_base<int, std::allocator<int>>::_Vector_impl_data" }
%"struct.std::_Vector_base<int, std::allocator<int>>::_Vector_impl_data" = type { ptr, ptr, ptr }

; Function Attrs: mustprogress nounwind uwtable
define linkonce_odr hidden noundef nonnull align 8 dereferenceable(8) ptr @_ZNKSt6vectorIdSaIdEEixEm(ptr noundef nonnull align 8 dereferenceable(24) %0, i64 noundef %1) #0 comdat align 2 {
  %3 = alloca ptr, align 8
  %4 = alloca i64, align 8
  store ptr %0, ptr %3, align 8, !tbaa !8
  store i64 %1, ptr %4, align 8, !tbaa !23
  %5 = load ptr, ptr %3, align 8
  %6 = getelementptr inbounds nuw %"struct.std::_Vector_base", ptr %5, i32 0, i32 0
  %7 = getelementptr inbounds nuw %"struct.std::_Vector_base<double, std::allocator<double>>::_Vector_impl_data", ptr %6, i32 0, i32 0
  %8 = load ptr, ptr %7, align 8, !tbaa !22
  %9 = load i64, ptr %4, align 8, !tbaa !23
  %10 = getelementptr inbounds nuw double, ptr %8, i64 %9
  ret ptr %10
}

; Function Attrs: mustprogress nounwind uwtable
define linkonce_odr hidden noundef nonnull align 4 dereferenceable(4) ptr @_ZNSt6vectorIiSaIiEEixEm(ptr noundef nonnull align 8 dereferenceable(24) %0, i64 noundef %1) #0 comdat align 2 {
  %3 = alloca ptr, align 8
  %4 = alloca i64, align 8
  store ptr %0, ptr %3, align 8, !tbaa !10
  store i64 %1, ptr %4, align 8, !tbaa !23
  %5 = load ptr, ptr %3, align 8
  %6 = getelementptr inbounds nuw %"struct.std::_Vector_base.1", ptr %5, i32 0, i32 0
  %7 = getelementptr inbounds nuw %"struct.std::_Vector_base<int, std::allocator<int>>::_Vector_impl_data", ptr %6, i32 0, i32 0
  %8 = load ptr, ptr %7, align 8, !tbaa !25
  %9 = load i64, ptr %4, align 8, !tbaa !23
  %10 = getelementptr inbounds nuw i32, ptr %8, i64 %9
  ret ptr %10
}

; Function Attrs: mustprogress nounwind uwtable
define linkonce_odr hidden noundef i64 @_ZNKSt6vectorIdSaIdEE4sizeEv(ptr noundef nonnull align 8 dereferenceable(24) %0) #0 comdat align 2 {
  %2 = alloca ptr, align 8
  store ptr %0, ptr %2, align 8, !tbaa !8
  %3 = load ptr, ptr %2, align 8
  %4 = getelementptr inbounds nuw %"struct.std::_Vector_base", ptr %3, i32 0, i32 0
  %5 = getelementptr inbounds nuw %"struct.std::_Vector_base<double, std::allocator<double>>::_Vector_impl_data", ptr %4, i32 0, i32 1
  %6 = load ptr, ptr %5, align 8, !tbaa !19
  %7 = getelementptr inbounds nuw %"struct.std::_Vector_base", ptr %3, i32 0, i32 0
  %8 = getelementptr inbounds nuw %"struct.std::_Vector_base<double, std::allocator<double>>::_Vector_impl_data", ptr %7, i32 0, i32 0
  %9 = load ptr, ptr %8, align 8, !tbaa !22
  %10 = ptrtoint ptr %6 to i64
  %11 = ptrtoint ptr %9 to i64
  %12 = sub i64 %10, %11
  %13 = sdiv exact i64 %12, 8
  ret i64 %13
}

; Function Attrs: mustprogress nounwind uwtable
define hidden void @_ZN2cv3dpm21NonMaximumSuppression4sortESt6vectorIdSaIdEERS2_IiSaIiEE(ptr noundef nonnull align 1 dereferenceable(1) %0, ptr noundef %1, ptr noundef nonnull align 8 dereferenceable(24) %2) #0 align 2 {
  %4 = alloca ptr, align 8
  %5 = alloca ptr, align 8
  %6 = alloca ptr, align 8
  %7 = alloca i32, align 4
  %8 = alloca i32, align 4
  %9 = alloca i32, align 4
  %10 = alloca i32, align 4
  store ptr %0, ptr %4, align 8, !tbaa !3
  store ptr %1, ptr %5, align 8, !tbaa !8
  store ptr %2, ptr %6, align 8, !tbaa !10
  call void @llvm.lifetime.start.p0(i64 4, ptr %7) #12
  store i32 0, ptr %7, align 4, !tbaa !12
  br label %11

11:                                               ; preds = %69, %3
  %12 = load i32, ptr %7, align 4, !tbaa !12
  %13 = zext i32 %12 to i64
  %14 = call noundef i64 @_ZNKSt6vectorIdSaIdEE4sizeEv(ptr noundef nonnull align 8 dereferenceable(24) %1) #12
  %15 = icmp ult i64 %13, %14
  br i1 %15, label %17, label %16

16:                                               ; preds = %11
  store i32 2, ptr %8, align 4
  call void @llvm.lifetime.end.p0(i64 4, ptr %7) #12
  br label %72

17:                                               ; preds = %11
  call void @llvm.lifetime.start.p0(i64 4, ptr %9) #12
  %18 = load i32, ptr %7, align 4, !tbaa !12
  %19 = add i32 %18, 1
  store i32 %19, ptr %9, align 4, !tbaa !12
  br label %20

20:                                               ; preds = %65, %17
  %21 = load i32, ptr %9, align 4, !tbaa !12
  %22 = zext i32 %21 to i64
  %23 = call noundef i64 @_ZNKSt6vectorIdSaIdEE4sizeEv(ptr noundef nonnull align 8 dereferenceable(24) %1) #12
  %24 = icmp ult i64 %22, %23
  br i1 %24, label %26, label %25

25:                                               ; preds = %20
  store i32 5, ptr %8, align 4
  call void @llvm.lifetime.end.p0(i64 4, ptr %9) #12
  br label %68

26:                                               ; preds = %20
  %27 = load ptr, ptr %6, align 8, !tbaa !10
  %28 = load i32, ptr %9, align 4, !tbaa !12
  %29 = zext i32 %28 to i64
  %30 = call noundef nonnull align 4 dereferenceable(4) ptr @_ZNSt6vectorIiSaIiEEixEm(ptr noundef nonnull align 8 dereferenceable(24) %27, i64 noundef %29) #12
  %31 = load i32, ptr %30, align 4, !tbaa !12
  %32 = sext i32 %31 to i64
  %33 = call noundef nonnull align 8 dereferenceable(8) ptr @_ZNKSt6vectorIdSaIdEEixEm(ptr noundef nonnull align 8 dereferenceable(24) %1, i64 noundef %32) #12
  %34 = load double, ptr %33, align 8, !tbaa !14
  %35 = load ptr, ptr %6, align 8, !tbaa !10
  %36 = load i32, ptr %7, align 4, !tbaa !12
  %37 = zext i32 %36 to i64
  %38 = call noundef nonnull align 4 dereferenceable(4) ptr @_ZNSt6vectorIiSaIiEEixEm(ptr noundef nonnull align 8 dereferenceable(24) %35, i64 noundef %37) #12
  %39 = load i32, ptr %38, align 4, !tbaa !12
  %40 = sext i32 %39 to i64
  %41 = call noundef nonnull align 8 dereferenceable(8) ptr @_ZNKSt6vectorIdSaIdEEixEm(ptr noundef nonnull align 8 dereferenceable(24) %1, i64 noundef %40) #12
  %42 = load double, ptr %41, align 8, !tbaa !14
  %43 = fcmp olt double %34, %42
  br i1 %43, label %44, label %64

44:                                               ; preds = %26
  call void @llvm.lifetime.start.p0(i64 4, ptr %10) #12
  %45 = load ptr, ptr %6, align 8, !tbaa !10
  %46 = load i32, ptr %7, align 4, !tbaa !12
  %47 = zext i32 %46 to i64
  %48 = call noundef nonnull align 4 dereferenceable(4) ptr @_ZNSt6vectorIiSaIiEEixEm(ptr noundef nonnull align 8 dereferenceable(24) %45, i64 noundef %47) #12
  %49 = load i32, ptr %48, align 4, !tbaa !12
  store i32 %49, ptr %10, align 4, !tbaa !12
  %50 = load ptr, ptr %6, align 8, !tbaa !10
  %51 = load i32, ptr %9, align 4, !tbaa !12
  %52 = zext i32 %51 to i64
  %53 = call noundef nonnull align 4 dereferenceable(4) ptr @_ZNSt6vectorIiSaIiEEixEm(ptr noundef nonnull align 8 dereferenceable(24) %50, i64 noundef %52) #12
  %54 = load i32, ptr %53, align 4, !tbaa !12
  %55 = load ptr, ptr %6, align 8, !tbaa !10
  %56 = load i32, ptr %7, align 4, !tbaa !12
  %57 = zext i32 %56 to i64
  %58 = call noundef nonnull align 4 dereferenceable(4) ptr @_ZNSt6vectorIiSaIiEEixEm(ptr noundef nonnull align 8 dereferenceable(24) %55, i64 noundef %57) #12
  store i32 %54, ptr %58, align 4, !tbaa !12
  %59 = load i32, ptr %10, align 4, !tbaa !12
  %60 = load ptr, ptr %6, align 8, !tbaa !10
  %61 = load i32, ptr %9, align 4, !tbaa !12
  %62 = zext i32 %61 to i64
  %63 = call noundef nonnull align 4 dereferenceable(4) ptr @_ZNSt6vectorIiSaIiEEixEm(ptr noundef nonnull align 8 dereferenceable(24) %60, i64 noundef %62) #12
  store i32 %59, ptr %63, align 4, !tbaa !12
  call void @llvm.lifetime.end.p0(i64 4, ptr %10) #12
  br label %64

64:                                               ; preds = %44, %26
  br label %65

65:                                               ; preds = %64
  %66 = load i32, ptr %9, align 4, !tbaa !12
  %67 = add i32 %66, 1
  store i32 %67, ptr %9, align 4, !tbaa !12
  br label %20, !llvm.loop !16

68:                                               ; preds = %25
  br label %69

69:                                               ; preds = %68
  %70 = load i32, ptr %7, align 4, !tbaa !12
  %71 = add i32 %70, 1
  store i32 %71, ptr %7, align 4, !tbaa !12
  br label %11, !llvm.loop !18

72:                                               ; preds = %16
  ret void
}