; Function Attrs: mustprogress nofree norecurse nosync nounwind memory(readwrite, inaccessiblemem: none) uwtable
define hidden void @_ZN2cv3dpm21NonMaximumSuppression4sortESt6vectorIdSaIdEERS2_IiSaIiEE(ptr noundef nonnull readnone align 1 captures(none) dereferenceable(1) %0, ptr noundef readonly captures(none) %1, ptr noundef nonnull readonly align 8 captures(none) dereferenceable(24) %2) local_unnamed_addr #0 align 2 {
  %4 = getelementptr inbounds nuw i8, ptr %1, i64 8
  %5 = load ptr, ptr %4, align 8, !tbaa !3
  %6 = load ptr, ptr %1, align 8, !tbaa !9
  %7 = ptrtoint ptr %5 to i64
  %8 = ptrtoint ptr %6 to i64
  %9 = sub i64 %7, %8
  %10 = ashr exact i64 %9, 3
  %.not = icmp eq ptr %5, %6
  br i1 %.not, label %._crit_edge, label %.lr.ph22

.lr.ph22:                                         ; preds = %3
  %11 = load ptr, ptr %2, align 8
  %12 = icmp ugt i64 %10, 1
  br i1 %12, label %.lr.ph, label %._crit_edge

.loopexit:                                        ; preds = %33
  %13 = add i32 %17, 1
  %14 = zext i32 %13 to i64
  %15 = icmp ugt i64 %10, %14
  br i1 %15, label %.lr.ph, label %._crit_edge, !llvm.loop !10

._crit_edge:                                      ; preds = %.loopexit, %.lr.ph22, %3
  ret void

.lr.ph:                                           ; preds = %.lr.ph22, %.loopexit
  %16 = phi i64 [ %14, %.loopexit ], [ 1, %.lr.ph22 ]
  %17 = phi i32 [ %13, %.loopexit ], [ 1, %.lr.ph22 ]
  %18 = phi i64 [ %16, %.loopexit ], [ 0, %.lr.ph22 ]
  %19 = getelementptr inbounds nuw i32, ptr %11, i64 %18
  br label %20

20:                                               ; preds = %.lr.ph, %33
  %21 = phi i64 [ %16, %.lr.ph ], [ %35, %33 ]
  %.01720 = phi i32 [ %17, %.lr.ph ], [ %34, %33 ]
  %22 = getelementptr inbounds nuw i32, ptr %11, i64 %21
  %23 = load i32, ptr %22, align 4, !tbaa !12
  %24 = sext i32 %23 to i64
  %25 = getelementptr inbounds nuw double, ptr %6, i64 %24
  %26 = load double, ptr %25, align 8, !tbaa !14
  %27 = load i32, ptr %19, align 4, !tbaa !12
  %28 = sext i32 %27 to i64
  %29 = getelementptr inbounds nuw double, ptr %6, i64 %28
  %30 = load double, ptr %29, align 8, !tbaa !14
  %31 = fcmp olt double %26, %30
  br i1 %31, label %32, label %33

32:                                               ; preds = %20
  store i32 %23, ptr %19, align 4, !tbaa !12
  store i32 %27, ptr %22, align 4, !tbaa !12
  br label %33

33:                                               ; preds = %20, %32
  %34 = add i32 %.01720, 1
  %35 = zext i32 %34 to i64
  %36 = icmp ugt i64 %10, %35
  br i1 %36, label %20, label %.loopexit, !llvm.loop !16
}